(dp1
S'interfaceFontSize'
p2
I12
sS'interfaceLang'
p3
S'en'
p4
sS'factEditorAdvanced'
p5
I00
sS'saveAfterAdding'
p6
I01
sS'scrollToAnswer'
p7
I01
sS'editorReverseOrder'
p8
I00
sS'showLastCardInterval'
p9
I00
sS'deckBrowserRefreshPeriod'
p10
I3600
sS'dropboxPublicFolder'
p11
V
sS'syncDisableWhenMoved'
p12
I01
sS'addZeroSpace'
p13
I00
sS'qaDivider'
p14
I01
sS'showCardTimer'
p15
I01
sS'syncInMsgBox'
p16
I00
sS'syncOnProgramOpen'
p17
I01
sS'deleteMedia'
p18
I00
sS'standaloneWindows'
p19
I01
sS'interfaceFontFamily'
p20
S'Arial'
p21
sS'lastCardColour'
p22
S'#0077FF'
p23
sS'lastMsg'
p24
I-1
sS'showSuspendedCards'
p25
I01
sS'syncUsername'
p26
S''
sS'showTrayIcon'
p27
I00
sS'alternativeTheme'
p28
I00
sS'splitQA'
p29
I01
sS'optimizeSmall'
p30
I00
sS'syncOnLoad'
p31
I00
sS'extraNewCards'
p32
I5
sS'mainWindowGeom'
p33
csip
_unpickle_type
p34
(S'PyQt4.QtCore'
p35
S'QByteArray'
(S'\x01\xd9\xd0\xcb\x00\x01\x00\x00\x00\x00\x00\x00\x00\x00\x00\x11\x00\x00\x03\xbf\x00\x00\x04\xaf\x00\x00\x00\x01\x00\x00\x00\x12\x00\x00\x03\xbe\x00\x00\x04\xae\x00\x00\x00\x00\x00\x00'
ttRp36
sS'easeButtonStyle'
p37
S'standard'
p38
sS'showLastCardContent'
p39
I00
sS'showToolbar'
p40
I01
sS'suppressUpdate'
p41
I00
sS'saveAfterAnswerNum'
p42
I30
sS'saveOnClose'
p43
I01
sS'syncOnClose'
p44
I00
sS'interfaceColour'
p45
S'#000000'
p46
sS'saveAfterAddingNum'
p47
I10
sS'recentColours'
p48
(lp49
S'#000000'
p50
aS'#0000ff'
p51
asS'editFontFamily'
p52
g21
sS'proxyUser'
p53
S''
sS'showProgress'
p54
I01
sS'deckBrowserOrder'
p55
I0
sS'colourTimes'
p56
I01
sS'documentDir'
p57
V
sS'recentDeckPaths'
p58
(lp59
V/home/jon/Things/anki/mydeck.anki
p60
aV/home/jon/mydeck.anki
p61
aV/home/jon/mydeck2.anki
p62
aV/home/jon/mydeck3.anki
p63
asS'easeButtonHeight'
p64
g38
sS'loadLastDeck'
p65
I00
sS'editLineSize'
p66
I20
sS'showStudyScreen'
p67
I01
sS'deckBrowserNameLength'
p68
I30
sS'id'
p69
L6115733529446109876L
sS'sortIndex'
p70
I0
sS'numBackups'
p71
I30
sS'forceLTR'
p72
I00
sS'version'
p73
S'1.2.11'
p74
sS'showStudyStats'
p75
I01
sS'autoplaySounds'
p76
I01
sS'checkForUpdates'
p77
I01
sS'mainWindowState'
p78
g34
(g35
S'QByteArray'
(S'\x00\x00\x00\xff\x00\x00\x00\x00\xfd\x00\x00\x00\x00\x00\x00\x03\xbe\x00\x00\x04M\x00\x00\x00\x04\x00\x00\x00\x04\x00\x00\x00\x08\x00\x00\x00\x08\xfc\x00\x00\x00\x01\x00\x00\x00\x02\x00\x00\x00\x01\x00\x00\x00\x0e\x00t\x00o\x00o\x00l\x00B\x00a\x00r\x01\x00\x00\x00\x00\xff\xff\xff\xff\x00\x00\x00\x00\x00\x00\x00\x00'
ttRp79
sS'saveAfterAnswer'
p80
I01
sS'showFontPreview'
p81
I01
sS'studyOptionsScreen'
p82
I0
sS'lastCardFontSize'
p83
I14
sS'suppressEstimates'
p84
I00
sS'preserveKeyboard'
p85
I01
sS'iconSize'
p86
I32
sS'mediaLocation'
p87
S''
sS'proxyHost'
p88
S''
sS'stripHTML'
p89
I01
sS'backgroundColour'
p90
S'#FFFFFF'
p91
sS'mainWindowGeometry'
p92
(I1
I13
I1918
I1186
tp93
sS'showTimer'
p94
I01
sS'randomizeOnCram'
p95
I01
sS'repeatQuestionAudio'
p96
I01
sS'lastCardFontFamily'
p97
g21
sS'proxyPort'
p98
I8080
sS'syncPassword'
p99
S''
sS'created'
p100
F1366128120.5001819
sS'proxyPass'
p101
S''
sS'editFontSize'
p102
I12
sS'preventEditUntilAnswer'
p103
I00
s.