(dp1
S'interfaceFontSize'
p2
I12
sS'lastCardFontSize'
p3
I14
sS'interfaceLang'
p4
S'en_US'
p5
sS'syncOnLoad'
p6
I00
sS'recentDeckPaths'
p7
(lp8
V/home/jon/Things/anki/mydeck.anki
p9
aV/home/jon/mydeck.anki
p10
aV/home/jon/mydeck2.anki
p11
aV/home/jon/mydeck3.anki
p12
asS'easeButtonHeight'
p13
S'standard'
p14
sS'syncPassword'
p15
S''
sS'saveAfterAnswerNum'
p16
I30
sS'saveAfterAdding'
p17
I01
sS'editFontFamily'
p18
S'Arial'
p19
sS'easeButtonStyle'
p20
g14
sS'showToolbar'
p21
I01
sS'backgroundColour'
p22
S'#FFFFFF'
p23
sS'mainWindowGeometry'
p24
(I1
I13
I1918
I1186
tp25
sS'saveOnClose'
p26
I01
sS'syncOnClose'
p27
I00
sS'interfaceColour'
p28
S'#000000'
p29
sS'lastCardFontFamily'
p30
g19
sS'saveAfterAddingNum'
p31
I10
sS'syncUsername'
p32
S''
sS'interfaceFontFamily'
p33
g19
sS'lastCardColour'
p34
S'#0077FF'
p35
sS'checkForUpdates'
p36
I01
sS'editFontSize'
p37
I12
sS'showSuspendedCards'
p38
I01
sS'saveAfterAnswer'
p39
I01
sS'showFontPreview'
p40
I01
s.